; Function Attrs: mustprogress uwtable
define hidden void @_ZN19maximize_bv_sharing9init_coreEv(ptr noundef nonnull align 8 dereferenceable(136) %this) unnamed_addr #3 align 2 {
entry:
  %m_kinds.i = getelementptr inbounds i8, ptr %this, i64 104
  %0 = load ptr, ptr %m_kinds.i, align 8
  %cmp.i.i = icmp eq ptr %0, null
  br i1 %cmp.i.i, label %if.then.i.i, label %lor.lhs.false.i.i

lor.lhs.false.i.i:                                ; preds = %entry
  %arrayidx.i.i = getelementptr inbounds i8, ptr %0, i64 -4
  %1 = load i32, ptr %arrayidx.i.i, align 4
  %arrayidx4.i.i = getelementptr inbounds i8, ptr %0, i64 -8
  %2 = load i32, ptr %arrayidx4.i.i, align 4
  %cmp5.i.i = icmp eq i32 %1, %2
  br i1 %cmp5.i.i, label %if.then.i.i, label %_ZN19maximize_ac_sharing13register_kindEi.exit

if.then.i.i:                                      ; preds = %lor.lhs.false.i.i, %entry
  tail call void @_ZN6vectorIiLb0EjE13expand_vectorEv(ptr noundef nonnull align 8 dereferenceable(8) %m_kinds.i)
  %.pre.i.i = load ptr, ptr %m_kinds.i, align 8
  %arrayidx8.phi.trans.insert.i.i = getelementptr inbounds i8, ptr %.pre.i.i, i64 -4
  %.pre1.i.i = load i32, ptr %arrayidx8.phi.trans.insert.i.i, align 4
  br label %_ZN19maximize_ac_sharing13register_kindEi.exit

_ZN19maximize_ac_sharing13register_kindEi.exit:   ; preds = %lor.lhs.false.i.i, %if.then.i.i
  %3 = phi i32 [ %.pre1.i.i, %if.then.i.i ], [ %1, %lor.lhs.false.i.i ]
  %4 = phi ptr [ %.pre.i.i, %if.then.i.i ], [ %0, %lor.lhs.false.i.i ]
  %idx.ext.i.i = zext i32 %3 to i64
  %add.ptr.i.i = getelementptr inbounds i32, ptr %4, i64 %idx.ext.i.i
  store i32 4, ptr %add.ptr.i.i, align 4
  %5 = load ptr, ptr %m_kinds.i, align 8
  %arrayidx10.i.i = getelementptr inbounds i8, ptr %5, i64 -4
  %6 = load i32, ptr %arrayidx10.i.i, align 4
  %inc.i.i = add i32 %6, 1
  store i32 %inc.i.i, ptr %arrayidx10.i.i, align 4
  %7 = load ptr, ptr %m_kinds.i, align 8
  %cmp.i.i2 = icmp eq ptr %7, null
  br i1 %cmp.i.i2, label %if.then.i.i11, label %lor.lhs.false.i.i3

lor.lhs.false.i.i3:                               ; preds = %_ZN19maximize_ac_sharing13register_kindEi.exit
  %arrayidx.i.i4 = getelementptr inbounds i8, ptr %7, i64 -4
  %8 = load i32, ptr %arrayidx.i.i4, align 4
  %arrayidx4.i.i5 = getelementptr inbounds i8, ptr %7, i64 -8
  %9 = load i32, ptr %arrayidx4.i.i5, align 4
  %cmp5.i.i6 = icmp eq i32 %8, %9
  br i1 %cmp5.i.i6, label %if.then.i.i11, label %_ZN19maximize_ac_sharing13register_kindEi.exit15

if.then.i.i11:                                    ; preds = %lor.lhs.false.i.i3, %_ZN19maximize_ac_sharing13register_kindEi.exit
  tail call void @_ZN6vectorIiLb0EjE13expand_vectorEv(ptr noundef nonnull align 8 dereferenceable(8) %m_kinds.i)
  %.pre.i.i12 = load ptr, ptr %m_kinds.i, align 8
  %arrayidx8.phi.trans.insert.i.i13 = getelementptr inbounds i8, ptr %.pre.i.i12, i64 -4
  %.pre1.i.i14 = load i32, ptr %arrayidx8.phi.trans.insert.i.i13, align 4
  br label %_ZN19maximize_ac_sharing13register_kindEi.exit15

_ZN19maximize_ac_sharing13register_kindEi.exit15: ; preds = %lor.lhs.false.i.i3, %if.then.i.i11
  %10 = phi i32 [ %.pre1.i.i14, %if.then.i.i11 ], [ %8, %lor.lhs.false.i.i3 ]
  %11 = phi ptr [ %.pre.i.i12, %if.then.i.i11 ], [ %7, %lor.lhs.false.i.i3 ]
  %idx.ext.i.i7 = zext i32 %10 to i64
  %add.ptr.i.i8 = getelementptr inbounds i32, ptr %11, i64 %idx.ext.i.i7
  store i32 6, ptr %add.ptr.i.i8, align 4
  %12 = load ptr, ptr %m_kinds.i, align 8
  %arrayidx10.i.i9 = getelementptr inbounds i8, ptr %12, i64 -4
  %13 = load i32, ptr %arrayidx10.i.i9, align 4
  %inc.i.i10 = add i32 %13, 1
  store i32 %inc.i.i10, ptr %arrayidx10.i.i9, align 4
  %14 = load ptr, ptr %m_kinds.i, align 8
  %cmp.i.i17 = icmp eq ptr %14, null
  br i1 %cmp.i.i17, label %if.then.i.i26, label %lor.lhs.false.i.i18

lor.lhs.false.i.i18:                              ; preds = %_ZN19maximize_ac_sharing13register_kindEi.exit15
  %arrayidx.i.i19 = getelementptr inbounds i8, ptr %14, i64 -4
  %15 = load i32, ptr %arrayidx.i.i19, align 4
  %arrayidx4.i.i20 = getelementptr inbounds i8, ptr %14, i64 -8
  %16 = load i32, ptr %arrayidx4.i.i20, align 4
  %cmp5.i.i21 = icmp eq i32 %15, %16
  br i1 %cmp5.i.i21, label %if.then.i.i26, label %_ZN19maximize_ac_sharing13register_kindEi.exit30

if.then.i.i26:                                    ; preds = %lor.lhs.false.i.i18, %_ZN19maximize_ac_sharing13register_kindEi.exit15
  tail call void @_ZN6vectorIiLb0EjE13expand_vectorEv(ptr noundef nonnull align 8 dereferenceable(8) %m_kinds.i)
  %.pre.i.i27 = load ptr, ptr %m_kinds.i, align 8
  %arrayidx8.phi.trans.insert.i.i28 = getelementptr inbounds i8, ptr %.pre.i.i27, i64 -4
  %.pre1.i.i29 = load i32, ptr %arrayidx8.phi.trans.insert.i.i28, align 4
  br label %_ZN19maximize_ac_sharing13register_kindEi.exit30

_ZN19maximize_ac_sharing13register_kindEi.exit30: ; preds = %lor.lhs.false.i.i18, %if.then.i.i26
  %17 = phi i32 [ %.pre1.i.i29, %if.then.i.i26 ], [ %15, %lor.lhs.false.i.i18 ]
  %18 = phi ptr [ %.pre.i.i27, %if.then.i.i26 ], [ %14, %lor.lhs.false.i.i18 ]
  %idx.ext.i.i22 = zext i32 %17 to i64
  %add.ptr.i.i23 = getelementptr inbounds i32, ptr %18, i64 %idx.ext.i.i22
  store i32 31, ptr %add.ptr.i.i23, align 4
  %19 = load ptr, ptr %m_kinds.i, align 8
  %arrayidx10.i.i24 = getelementptr inbounds i8, ptr %19, i64 -4
  %20 = load i32, ptr %arrayidx10.i.i24, align 4
  %inc.i.i25 = add i32 %20, 1
  store i32 %inc.i.i25, ptr %arrayidx10.i.i24, align 4
  %21 = load ptr, ptr %m_kinds.i, align 8
  %cmp.i.i32 = icmp eq ptr %21, null
  br i1 %cmp.i.i32, label %if.then.i.i41, label %lor.lhs.false.i.i33

lor.lhs.false.i.i33:                              ; preds = %_ZN19maximize_ac_sharing13register_kindEi.exit30
  %arrayidx.i.i34 = getelementptr inbounds i8, ptr %21, i64 -4
  %22 = load i32, ptr %arrayidx.i.i34, align 4
  %arrayidx4.i.i35 = getelementptr inbounds i8, ptr %21, i64 -8
  %23 = load i32, ptr %arrayidx4.i.i35, align 4
  %cmp5.i.i36 = icmp eq i32 %22, %23
  br i1 %cmp5.i.i36, label %if.then.i.i41, label %_ZN19maximize_ac_sharing13register_kindEi.exit45

if.then.i.i41:                                    ; preds = %lor.lhs.false.i.i33, %_ZN19maximize_ac_sharing13register_kindEi.exit30
  tail call void @_ZN6vectorIiLb0EjE13expand_vectorEv(ptr noundef nonnull align 8 dereferenceable(8) %m_kinds.i)
  %.pre.i.i42 = load ptr, ptr %m_kinds.i, align 8
  %arrayidx8.phi.trans.insert.i.i43 = getelementptr inbounds i8, ptr %.pre.i.i42, i64 -4
  %.pre1.i.i44 = load i32, ptr %arrayidx8.phi.trans.insert.i.i43, align 4
  br label %_ZN19maximize_ac_sharing13register_kindEi.exit45

_ZN19maximize_ac_sharing13register_kindEi.exit45: ; preds = %lor.lhs.false.i.i33, %if.then.i.i41
  %24 = phi i32 [ %.pre1.i.i44, %if.then.i.i41 ], [ %22, %lor.lhs.false.i.i33 ]
  %25 = phi ptr [ %.pre.i.i42, %if.then.i.i41 ], [ %21, %lor.lhs.false.i.i33 ]
  %idx.ext.i.i37 = zext i32 %24 to i64
  %add.ptr.i.i38 = getelementptr inbounds i32, ptr %25, i64 %idx.ext.i.i37
  store i32 30, ptr %add.ptr.i.i38, align 4
  %26 = load ptr, ptr %m_kinds.i, align 8
  %arrayidx10.i.i39 = getelementptr inbounds i8, ptr %26, i64 -4
  %27 = load i32, ptr %arrayidx10.i.i39, align 4
  %inc.i.i40 = add i32 %27, 1
  store i32 %inc.i.i40, ptr %arrayidx10.i.i39, align 4
  ret void
}